target datalayout = "e-m:e-p270:32:32-p271:32:32-p272:64:64-i64:64-i128:128-f80:128-n8:16:32:64-S128"
target triple = "x86_64-pc-linux-gnu"

%struct.redisServer = type { i32, i64, ptr, ptr, ptr, i32, i32, i32, i32, i32, ptr, ptr, ptr, ptr, ptr, i32, i32, i32, i32, i64, i32, i32, i32, i32, ptr, i32, i32, [41 x i8], i32, i64, i32, i32, i32, ptr, ptr, i32, i32, i64, ptr, ptr, ptr, ptr, [2 x i32], i32, i32, i32, i32, i32, i32, [16 x ptr], i32, ptr, ptr, i32, [8 x %struct.connListener], i32, %struct.connListener, ptr, ptr, ptr, ptr, ptr, ptr, ptr, ptr, ptr, ptr, i32, ptr, i32, ptr, [3 x %struct.pause_event], [256 x i8], ptr, i64, i32, i32, [128 x i32], i32, i32, i64, i32, i32, i32, i32, i32, i64, i64, i64, i64, i64, i64, i64, i64, i64, i64, double, i64, i64, i64, i64, i64, i64, i64, i64, i64, i64, i64, i64, i64, i64, i64, i64, i64, i64, i64, i64, i64, double, i64, i64, i64, i64, i64, ptr, i64, i64, i64, %struct.malloc_stats, i64, i64, i64, i64, i64, i64, i64, i64, i64, i64, i64, i64, double, [4 x i64], i64, i64, i64, i64, [128 x i64], [128 x i64], i64, i64, [7 x %struct.anon], i64, i64, i64, i64, i64, i64, [4 x %struct.durationStats], i32, i32, i32, i32, i32, i32, i32, i32, i32, i32, i32, i32, i64, i32, i32, i32, i32, i64, i64, i32, i32, i32, i32, i32, ptr, [3 x %struct.clientBufferLimitsConfig], i32, i32, i32, ptr, i32, i32, i32, i32, i32, i32, ptr, ptr, i32, i32, i64, i64, i64, i64, i64, i32, i32, ptr, i32, i32, i64, i64, i64, i64, i64, i32, i32, i64, i32, i32, i32, i32, i32, i32, i32, i32, ptr, i32, i64, i64, i64, i64, i32, ptr, i32, ptr, i32, i32, i32, i64, i64, i64, i64, i32, i32, i32, i32, i32, i32, ptr, i32, i32, ptr, i32, i32, i32, [2 x i32], i32, %struct.redisOpArray, i32, ptr, i32, ptr, i32, i32, i32, i32, i32, i32, i32, [41 x i8], [41 x i8], i64, i64, i64, i64, i32, i32, ptr, i64, i64, %struct.replDataBuf, i64, i64, i32, i32, i32, i32, i32, i32, i32, i32, i32, i64, ptr, i64, ptr, ptr, ptr, i32, i32, ptr, ptr, i32, i32, i32, i64, i64, i64, i64, ptr, ptr, i32, ptr, i64, i32, i32, i32, i64, i32, i32, i32, i32, ptr, i32, i32, [41 x i8], i64, i32, ptr, i32, i32, i64, i64, i32, i32, i32, i32, i32, i64, [3 x i32], i32, i32, i32, [10 x i32], ptr, ptr, i32, i64, ptr, ptr, i32, i32, i32, i32, i64, i64, i64, i64, i64, i64, i64, i64, i64, i64, i32, i32, i64, i64, i32, i64, i64, i64, i64, i64, ptr, ptr, i32, ptr, i32, i32, i32, i32, i64, i64, ptr, ptr, i32, i32, i32, i32, i32, ptr, ptr, ptr, i32, i32, i32, i32, i32, i32, i32, i64, i32, i32, i64, i32, i32, i32, i32, i32, i32, i32, i64, ptr, ptr, i64, ptr, i32, %struct.aclInfo, i32, i64, i32, i32, i32, %struct.redisTLSContextConfig, ptr, ptr, ptr, ptr, ptr, i64, i32, ptr, i32, i32, i32, i64, i32, ptr }
%struct.connListener = type { [16 x i32], i32, ptr, i32, i32, ptr, ptr }
%struct.pause_event = type { i32, i64 }
%struct.malloc_stats = type { i64, i64, i64, i64, i64, i64, i64, i64, i64, i64, i64 }
%struct.anon = type { i64, i64, [16 x i64], i32 }
%struct.durationStats = type { i64, i64, i64 }
%struct.clientBufferLimitsConfig = type { i64, i64, i64 }
%struct.redisOpArray = type { ptr, i32, i32 }
%struct.replDataBuf = type { ptr, i64, i64, i64, i64 }
%struct.aclInfo = type { i64, i64, i64, i64 }
%struct.redisTLSContextConfig = type { ptr, ptr, ptr, ptr, ptr, ptr, ptr, ptr, ptr, ptr, ptr, ptr, i32, i32, i32, i32 }
%struct.redisObject = type { i32, i32, ptr }

@server = external global %struct.redisServer, align 8
@.str.15 = private unnamed_addr constant [12 x i8] c"__keyspace@\00", align 1
@.str.16 = private unnamed_addr constant [4 x i8] c"__:\00", align 1
@.str.17 = private unnamed_addr constant [12 x i8] c"__keyevent@\00", align 1

; Function Attrs: nounwind uwtable
define dso_local void @notifyKeyspaceEvent(i32 noundef %0, ptr noundef %1, ptr noundef %2, i32 noundef %3) #0 {
  %5 = alloca i32, align 4
  %6 = alloca ptr, align 8
  %7 = alloca ptr, align 8
  %8 = alloca i32, align 4
  %9 = alloca ptr, align 8
  %10 = alloca ptr, align 8
  %11 = alloca ptr, align 8
  %12 = alloca i32, align 4
  %13 = alloca [24 x i8], align 16
  %14 = alloca i32, align 4
  store i32 %0, ptr %5, align 4, !tbaa !10
  store ptr %1, ptr %6, align 8, !tbaa !5
  store ptr %2, ptr %7, align 8, !tbaa !15
  store i32 %3, ptr %8, align 4, !tbaa !10
  call void @llvm.lifetime.start.p0(i64 8, ptr %9) #4
  call void @llvm.lifetime.start.p0(i64 8, ptr %10) #4
  call void @llvm.lifetime.start.p0(i64 8, ptr %11) #4
  call void @llvm.lifetime.start.p0(i64 4, ptr %12) #4
  store i32 -1, ptr %12, align 4, !tbaa !10
  call void @llvm.lifetime.start.p0(i64 24, ptr %13) #4
  %15 = load i32, ptr %5, align 4, !tbaa !10
  %16 = load ptr, ptr %6, align 8, !tbaa !5
  %17 = load ptr, ptr %7, align 8, !tbaa !15
  %18 = load i32, ptr %8, align 4, !tbaa !10
  call void @moduleNotifyKeyspaceEvent(i32 noundef %15, ptr noundef %16, ptr noundef %17, i32 noundef %18)
  %19 = load i32, ptr getelementptr inbounds nuw (%struct.redisServer, ptr @server, i32 0, i32 376), align 8, !tbaa !17
  %20 = load i32, ptr %5, align 4, !tbaa !10
  %21 = and i32 %19, %20
  %22 = icmp ne i32 %21, 0
  br i1 %22, label %24, label %23

23:                                               ; preds = %4
  store i32 1, ptr %14, align 4
  br label %90

24:                                               ; preds = %4
  %25 = load ptr, ptr %6, align 8, !tbaa !5
  %26 = load ptr, ptr %6, align 8, !tbaa !5
  %27 = call i64 @strlen(ptr noundef %26) #5
  %28 = call ptr @createStringObject(ptr noundef %25, i64 noundef %27)
  store ptr %28, ptr %11, align 8, !tbaa !15
  %29 = load i32, ptr getelementptr inbounds nuw (%struct.redisServer, ptr @server, i32 0, i32 376), align 8, !tbaa !17
  %30 = and i32 %29, 1
  %31 = icmp ne i32 %30, 0
  br i1 %31, label %32, label %56

32:                                               ; preds = %24
  %33 = call ptr @sdsnewlen(ptr noundef @.str.15, i64 noundef 11)
  store ptr %33, ptr %9, align 8, !tbaa !5
  %34 = getelementptr inbounds [24 x i8], ptr %13, i64 0, i64 0
  %35 = load i32, ptr %8, align 4, !tbaa !10
  %36 = sext i32 %35 to i64
  %37 = call i32 @ll2string(ptr noundef %34, i64 noundef 24, i64 noundef %36)
  store i32 %37, ptr %12, align 4, !tbaa !10
  %38 = load ptr, ptr %9, align 8, !tbaa !5
  %39 = getelementptr inbounds [24 x i8], ptr %13, i64 0, i64 0
  %40 = load i32, ptr %12, align 4, !tbaa !10
  %41 = sext i32 %40 to i64
  %42 = call ptr @sdscatlen(ptr noundef %38, ptr noundef %39, i64 noundef %41)
  store ptr %42, ptr %9, align 8, !tbaa !5
  %43 = load ptr, ptr %9, align 8, !tbaa !5
  %44 = call ptr @sdscatlen(ptr noundef %43, ptr noundef @.str.16, i64 noundef 3)
  store ptr %44, ptr %9, align 8, !tbaa !5
  %45 = load ptr, ptr %9, align 8, !tbaa !5
  %46 = load ptr, ptr %7, align 8, !tbaa !15
  %47 = getelementptr inbounds nuw %struct.redisObject, ptr %46, i32 0, i32 2
  %48 = load ptr, ptr %47, align 8, !tbaa !45
  %49 = call ptr @sdscatsds(ptr noundef %45, ptr noundef %48)
  store ptr %49, ptr %9, align 8, !tbaa !5
  %50 = load ptr, ptr %9, align 8, !tbaa !5
  %51 = call ptr @createObject(i32 noundef 0, ptr noundef %50)
  store ptr %51, ptr %10, align 8, !tbaa !15
  %52 = load ptr, ptr %10, align 8, !tbaa !15
  %53 = load ptr, ptr %11, align 8, !tbaa !15
  %54 = call i32 @pubsubPublishMessage(ptr noundef %52, ptr noundef %53, i32 noundef 0)
  %55 = load ptr, ptr %10, align 8, !tbaa !15
  call void @decrRefCount(ptr noundef %55)
  br label %56

56:                                               ; preds = %32, %24
  %57 = load i32, ptr getelementptr inbounds nuw (%struct.redisServer, ptr @server, i32 0, i32 376), align 8, !tbaa !17
  %58 = and i32 %57, 2
  %59 = icmp ne i32 %58, 0
  br i1 %59, label %60, label %88

60:                                               ; preds = %56
  %61 = call ptr @sdsnewlen(ptr noundef @.str.17, i64 noundef 11)
  store ptr %61, ptr %9, align 8, !tbaa !5
  %62 = load i32, ptr %12, align 4, !tbaa !10
  %63 = icmp eq i32 %62, -1
  br i1 %63, label %64, label %69

64:                                               ; preds = %60
  %65 = getelementptr inbounds [24 x i8], ptr %13, i64 0, i64 0
  %66 = load i32, ptr %8, align 4, !tbaa !10
  %67 = sext i32 %66 to i64
  %68 = call i32 @ll2string(ptr noundef %65, i64 noundef 24, i64 noundef %67)
  store i32 %68, ptr %12, align 4, !tbaa !10
  br label %69

69:                                               ; preds = %64, %60
  %70 = load ptr, ptr %9, align 8, !tbaa !5
  %71 = getelementptr inbounds [24 x i8], ptr %13, i64 0, i64 0
  %72 = load i32, ptr %12, align 4, !tbaa !10
  %73 = sext i32 %72 to i64
  %74 = call ptr @sdscatlen(ptr noundef %70, ptr noundef %71, i64 noundef %73)
  store ptr %74, ptr %9, align 8, !tbaa !5
  %75 = load ptr, ptr %9, align 8, !tbaa !5
  %76 = call ptr @sdscatlen(ptr noundef %75, ptr noundef @.str.16, i64 noundef 3)
  store ptr %76, ptr %9, align 8, !tbaa !5
  %77 = load ptr, ptr %9, align 8, !tbaa !5
  %78 = load ptr, ptr %11, align 8, !tbaa !15
  %79 = getelementptr inbounds nuw %struct.redisObject, ptr %78, i32 0, i32 2
  %80 = load ptr, ptr %79, align 8, !tbaa !45
  %81 = call ptr @sdscatsds(ptr noundef %77, ptr noundef %80)
  store ptr %81, ptr %9, align 8, !tbaa !5
  %82 = load ptr, ptr %9, align 8, !tbaa !5
  %83 = call ptr @createObject(i32 noundef 0, ptr noundef %82)
  store ptr %83, ptr %10, align 8, !tbaa !15
  %84 = load ptr, ptr %10, align 8, !tbaa !15
  %85 = load ptr, ptr %7, align 8, !tbaa !15
  %86 = call i32 @pubsubPublishMessage(ptr noundef %84, ptr noundef %85, i32 noundef 0)
  %87 = load ptr, ptr %10, align 8, !tbaa !15
  call void @decrRefCount(ptr noundef %87)
  br label %88

88:                                               ; preds = %69, %56
  %89 = load ptr, ptr %11, align 8, !tbaa !15
  call void @decrRefCount(ptr noundef %89)
  store i32 0, ptr %14, align 4
  br label %90

90:                                               ; preds = %88, %23
  call void @llvm.lifetime.end.p0(i64 24, ptr %13) #4
  call void @llvm.lifetime.end.p0(i64 4, ptr %12) #4
  call void @llvm.lifetime.end.p0(i64 8, ptr %11) #4
  call void @llvm.lifetime.end.p0(i64 8, ptr %10) #4
  call void @llvm.lifetime.end.p0(i64 8, ptr %9) #4
  %91 = load i32, ptr %14, align 4
  switch i32 %91, label %93 [
    i32 0, label %92
    i32 1, label %92
  ]

92:                                               ; preds = %90, %90
  ret void

93:                                               ; preds = %90
  unreachable
}