; Function Attrs: nounwind uwtable
define dso_local void @notifyKeyspaceEvent(i32 noundef %0, ptr noundef %1, ptr noundef %2, i32 noundef %3) local_unnamed_addr #2 {
  %5 = alloca [24 x i8], align 16
  call void @llvm.lifetime.start.p0(i64 24, ptr nonnull %5) #5
  tail call void @moduleNotifyKeyspaceEvent(i32 noundef %0, ptr noundef %1, ptr noundef %2, i32 noundef %3) #5
  %6 = load i32, ptr getelementptr inbounds nuw (i8, ptr @server, i64 7864), align 8, !tbaa !10
  %7 = and i32 %6, %0
  %.not = icmp eq i32 %7, 0
  br i1 %.not, label %44, label %8

8:                                                ; preds = %4
  %9 = tail call i64 @strlen(ptr noundef nonnull dereferenceable(1) %1) #6
  %10 = tail call ptr @createStringObject(ptr noundef nonnull %1, i64 noundef %9) #5
  %11 = load i32, ptr getelementptr inbounds nuw (i8, ptr @server, i64 7864), align 8, !tbaa !10
  %12 = and i32 %11, 1
  %.not28 = icmp eq i32 %12, 0
  br i1 %.not28, label %25, label %13

13:                                               ; preds = %8
  %14 = tail call ptr @sdsnewlen(ptr noundef nonnull @.str.15, i64 noundef 11) #5
  %15 = sext i32 %3 to i64
  %16 = call i32 @ll2string(ptr noundef nonnull %5, i64 noundef 24, i64 noundef %15) #5
  %17 = sext i32 %16 to i64
  %18 = call ptr @sdscatlen(ptr noundef %14, ptr noundef nonnull %5, i64 noundef %17) #5
  %19 = call ptr @sdscatlen(ptr noundef %18, ptr noundef nonnull @.str.16, i64 noundef 3) #5
  %20 = getelementptr inbounds nuw i8, ptr %2, i64 8
  %21 = load ptr, ptr %20, align 8, !tbaa !41
  %22 = call ptr @sdscatsds(ptr noundef %19, ptr noundef %21) #5
  %23 = call ptr @createObject(i32 noundef 0, ptr noundef %22) #5
  %24 = call i32 @pubsubPublishMessage(ptr noundef %23, ptr noundef %10, i32 noundef 0) #5
  call void @decrRefCount(ptr noundef %23) #5
  %.pre = load i32, ptr getelementptr inbounds nuw (i8, ptr @server, i64 7864), align 8, !tbaa !10
  br label %25

25:                                               ; preds = %13, %8
  %26 = phi i32 [ %.pre, %13 ], [ %11, %8 ]
  %.0 = phi i32 [ %16, %13 ], [ -1, %8 ]
  %27 = and i32 %26, 2
  %.not29 = icmp eq i32 %27, 0
  br i1 %.not29, label %43, label %28

28:                                               ; preds = %25
  %29 = call ptr @sdsnewlen(ptr noundef nonnull @.str.17, i64 noundef 11) #5
  %30 = icmp eq i32 %.0, -1
  br i1 %30, label %31, label %34

31:                                               ; preds = %28
  %32 = sext i32 %3 to i64
  %33 = call i32 @ll2string(ptr noundef nonnull %5, i64 noundef 24, i64 noundef %32) #5
  br label %34

34:                                               ; preds = %31, %28
  %.1 = phi i32 [ %33, %31 ], [ %.0, %28 ]
  %35 = sext i32 %.1 to i64
  %36 = call ptr @sdscatlen(ptr noundef %29, ptr noundef nonnull %5, i64 noundef %35) #5
  %37 = call ptr @sdscatlen(ptr noundef %36, ptr noundef nonnull @.str.16, i64 noundef 3) #5
  %38 = getelementptr inbounds nuw i8, ptr %10, i64 8
  %39 = load ptr, ptr %38, align 8, !tbaa !41
  %40 = call ptr @sdscatsds(ptr noundef %37, ptr noundef %39) #5
  %41 = call ptr @createObject(i32 noundef 0, ptr noundef %40) #5
  %42 = call i32 @pubsubPublishMessage(ptr noundef %41, ptr noundef %2, i32 noundef 0) #5
  call void @decrRefCount(ptr noundef %41) #5
  br label %43

43:                                               ; preds = %34, %25
  call void @decrRefCount(ptr noundef %10) #5
  br label %44

44:                                               ; preds = %4, %43
  call void @llvm.lifetime.end.p0(i64 24, ptr nonnull %5) #5
  ret void
}